#include <math.h>
#include <stdio.h>
#include <stdlib.h>
#include <string.h>
#include <iostream>
using namespace std;

// * * * * * * * * * * * * * * * * *
// *????7???????        *
// *??????  1300013011       *
// *???2013.10.10               *
// * * * * * * * * * * * * * * * * *
int main()
{
	// ????n????i????b???a???sun?????
	int n, i, b, a, sum = 0;

	cin >> n;                      // ??n

    for (i = 1; i <= n; i++)       // ???????n?
    {
		if(i % 7 != 0)             // ??????7????????
        {
			b = i;                 // ???????i
		    
			while(b > 0)           // ???????????
			{	
				a = b % 10;        // a?b?????

				if(a == 7)         // a??7????????
		            break;
		    
				b = (b - a) / 10;  // ?b??????????
			}
	
	        if (a != 7)            // ?????7?
		         
		        sum = sum + i * i; // ?????????i???
	
		}
    }
	cout << sum << endl;           // ????

	return 0;
}